target datalayout = "e-m:e-p270:32:32-p271:32:32-p272:64:64-i64:64-i128:128-f80:128-n8:16:32:64-S128"
target triple = "x86_64-pc-linux-gnu"

%struct.H5O_loc_t = type { ptr, i64, i8 }
%struct.H5G_name_t = type { ptr, ptr, i32 }
%struct.H5G_loc_t = type { ptr, ptr }

@H5_libterm_g = external global i8, align 1
@.str = private unnamed_addr constant [103 x i8] c"generated/home/dtcxzyw/WorkSpace/Projects/compilers/llvm-opt-benchmark/bench/hdf5/hdf5/src/H5Tcommit.c\00", align 1
@H5T_init_g = external global i8, align 1
@H5E_DATATYPE_g = external global i64, align 8
@H5E_CANTOPENOBJ_g = external global i64, align 8
@H5E_CANTRELEASE_g = external global i64, align 8
@H5E_BADTYPE_g = external global i64, align 8
@H5E_CANTGET_g = external global i64, align 8
@__func__.H5T__open_name = private unnamed_addr constant [15 x i8] c"H5T__open_name\00", align 1
@H5E_NOTFOUND_g = external global i64, align 8
@.str.64 = private unnamed_addr constant [10 x i8] c"not found\00", align 1
@.str.65 = private unnamed_addr constant [22 x i8] c"can't get object type\00", align 1
@.str.66 = private unnamed_addr constant [21 x i8] c"not a named datatype\00", align 1
@.str.67 = private unnamed_addr constant [30 x i8] c"unable to open named datatype\00", align 1
@.str.68 = private unnamed_addr constant [20 x i8] c"can't free location\00", align 1

; Function Attrs: nounwind uwtable
define ptr @H5T__open_name(ptr noundef %0, ptr noundef %1) #0 {
  %3 = alloca ptr, align 8
  %4 = alloca ptr, align 8
  %5 = alloca ptr, align 8
  %6 = alloca %struct.H5G_name_t, align 8
  %7 = alloca %struct.H5O_loc_t, align 8
  %8 = alloca %struct.H5G_loc_t, align 8
  %9 = alloca i32, align 4
  %10 = alloca i8, align 1
  %11 = alloca ptr, align 8
  %12 = alloca i8, align 1
  store ptr %0, ptr %3, align 8, !tbaa !32
  store ptr %1, ptr %4, align 8, !tbaa !7
  call void @llvm.lifetime.start.p0(i64 8, ptr %5) #7
  store ptr null, ptr %5, align 8, !tbaa !21
  call void @llvm.lifetime.start.p0(i64 24, ptr %6) #7
  call void @llvm.lifetime.start.p0(i64 24, ptr %7) #7
  call void @llvm.lifetime.start.p0(i64 16, ptr %8) #7
  call void @llvm.lifetime.start.p0(i64 4, ptr %9) #7
  call void @llvm.lifetime.start.p0(i64 1, ptr %10) #7
  store i8 0, ptr %10, align 1, !tbaa !12
  call void @llvm.lifetime.start.p0(i64 8, ptr %11) #7
  store ptr null, ptr %11, align 8, !tbaa !21
  call void @llvm.lifetime.start.p0(i64 1, ptr %12) #7
  store i8 0, ptr %12, align 1, !tbaa !12
  %13 = load i8, ptr @H5T_init_g, align 1, !tbaa !12, !range !14, !noundef !15
  %14 = trunc i8 %13 to i1
  br i1 %14, label %19, label %15

15:                                               ; preds = %2
  %16 = load i8, ptr @H5_libterm_g, align 1, !tbaa !12, !range !14, !noundef !15
  %17 = trunc i8 %16 to i1
  %18 = xor i1 %17, true
  br label %19

19:                                               ; preds = %15, %2
  %20 = phi i1 [ true, %2 ], [ %18, %15 ]
  %21 = xor i1 %20, true
  %22 = xor i1 %21, true
  %23 = zext i1 %22 to i32
  %24 = sext i32 %23 to i64
  %25 = call i64 @llvm.expect.i64(i64 %24, i64 1)
  %26 = icmp ne i64 %25, 0
  br i1 %26, label %27, label %156

27:                                               ; preds = %19
  %28 = getelementptr inbounds nuw %struct.H5G_loc_t, ptr %8, i32 0, i32 0
  store ptr %7, ptr %28, align 8, !tbaa !65
  %29 = getelementptr inbounds nuw %struct.H5G_loc_t, ptr %8, i32 0, i32 1
  store ptr %6, ptr %29, align 8, !tbaa !68
  %30 = call i32 @H5G_loc_reset(ptr noundef %8)
  %31 = load ptr, ptr %3, align 8, !tbaa !32
  %32 = load ptr, ptr %4, align 8, !tbaa !7
  %33 = call i32 @H5G_loc_find(ptr noundef %31, ptr noundef %32, ptr noundef %8)
  %34 = icmp slt i32 %33, 0
  br i1 %34, label %35, label %54

35:                                               ; preds = %27
  br label %36

36:                                               ; preds = %35
  br label %37

37:                                               ; preds = %36
  br label %38

38:                                               ; preds = %37
  %39 = load i64, ptr @H5E_DATATYPE_g, align 8, !tbaa !3
  %40 = load i64, ptr @H5E_NOTFOUND_g, align 8, !tbaa !3
  %41 = call i32 (ptr, ptr, i32, i64, i64, ptr, ...) @H5E_printf_stack(ptr noundef @.str, ptr noundef @__func__.H5T__open_name, i32 noundef 985, i64 noundef %39, i64 noundef %40, ptr noundef @.str.64)
  br label %42

42:                                               ; preds = %38
  br label %43

43:                                               ; preds = %42
  store i8 1, ptr %12, align 1, !tbaa !12
  %44 = load i8, ptr %12, align 1, !tbaa !12, !range !14, !noundef !15
  %45 = trunc i8 %44 to i1
  %46 = zext i1 %45 to i8
  store i8 %46, ptr %12, align 1, !tbaa !12
  br label %47

47:                                               ; preds = %43
  br label %48

48:                                               ; preds = %47
  br label %49

49:                                               ; preds = %48
  store ptr null, ptr %11, align 8, !tbaa !21
  br label %122

50:                                               ; No predecessors!
  br label %51

51:                                               ; preds = %50
  br label %52

52:                                               ; preds = %51
  br label %53

53:                                               ; preds = %52
  br label %54

54:                                               ; preds = %53, %27
  store i8 1, ptr %10, align 1, !tbaa !12
  %55 = call i32 @H5O_obj_type(ptr noundef %7, ptr noundef %9)
  %56 = icmp slt i32 %55, 0
  br i1 %56, label %57, label %76

57:                                               ; preds = %54
  br label %58

58:                                               ; preds = %57
  br label %59

59:                                               ; preds = %58
  br label %60

60:                                               ; preds = %59
  %61 = load i64, ptr @H5E_DATATYPE_g, align 8, !tbaa !3
  %62 = load i64, ptr @H5E_CANTGET_g, align 8, !tbaa !3
  %63 = call i32 (ptr, ptr, i32, i64, i64, ptr, ...) @H5E_printf_stack(ptr noundef @.str, ptr noundef @__func__.H5T__open_name, i32 noundef 990, i64 noundef %61, i64 noundef %62, ptr noundef @.str.65)
  br label %64

64:                                               ; preds = %60
  br label %65

65:                                               ; preds = %64
  store i8 1, ptr %12, align 1, !tbaa !12
  %66 = load i8, ptr %12, align 1, !tbaa !12, !range !14, !noundef !15
  %67 = trunc i8 %66 to i1
  %68 = zext i1 %67 to i8
  store i8 %68, ptr %12, align 1, !tbaa !12
  br label %69

69:                                               ; preds = %65
  br label %70

70:                                               ; preds = %69
  br label %71

71:                                               ; preds = %70
  store ptr null, ptr %11, align 8, !tbaa !21
  br label %122

72:                                               ; No predecessors!
  br label %73

73:                                               ; preds = %72
  br label %74

74:                                               ; preds = %73
  br label %75

75:                                               ; preds = %74
  br label %76

76:                                               ; preds = %75, %54
  %77 = load i32, ptr %9, align 4, !tbaa !10
  %78 = icmp ne i32 %77, 2
  br i1 %78, label %79, label %98

79:                                               ; preds = %76
  br label %80

80:                                               ; preds = %79
  br label %81

81:                                               ; preds = %80
  br label %82

82:                                               ; preds = %81
  %83 = load i64, ptr @H5E_DATATYPE_g, align 8, !tbaa !3
  %84 = load i64, ptr @H5E_BADTYPE_g, align 8, !tbaa !3
  %85 = call i32 (ptr, ptr, i32, i64, i64, ptr, ...) @H5E_printf_stack(ptr noundef @.str, ptr noundef @__func__.H5T__open_name, i32 noundef 992, i64 noundef %83, i64 noundef %84, ptr noundef @.str.66)
  br label %86

86:                                               ; preds = %82
  br label %87

87:                                               ; preds = %86
  store i8 1, ptr %12, align 1, !tbaa !12
  %88 = load i8, ptr %12, align 1, !tbaa !12, !range !14, !noundef !15
  %89 = trunc i8 %88 to i1
  %90 = zext i1 %89 to i8
  store i8 %90, ptr %12, align 1, !tbaa !12
  br label %91

91:                                               ; preds = %87
  br label %92

92:                                               ; preds = %91
  br label %93

93:                                               ; preds = %92
  store ptr null, ptr %11, align 8, !tbaa !21
  br label %122

94:                                               ; No predecessors!
  br label %95

95:                                               ; preds = %94
  br label %96

96:                                               ; preds = %95
  br label %97

97:                                               ; preds = %96
  br label %98

98:                                               ; preds = %97, %76
  %99 = call ptr @H5T_open(ptr noundef %8)
  store ptr %99, ptr %5, align 8, !tbaa !21
  %100 = icmp eq ptr null, %99
  br i1 %100, label %101, label %120

101:                                              ; preds = %98
  br label %102

102:                                              ; preds = %101
  br label %103

103:                                              ; preds = %102
  br label %104

104:                                              ; preds = %103
  %105 = load i64, ptr @H5E_DATATYPE_g, align 8, !tbaa !3
  %106 = load i64, ptr @H5E_CANTOPENOBJ_g, align 8, !tbaa !3
  %107 = call i32 (ptr, ptr, i32, i64, i64, ptr, ...) @H5E_printf_stack(ptr noundef @.str, ptr noundef @__func__.H5T__open_name, i32 noundef 996, i64 noundef %105, i64 noundef %106, ptr noundef @.str.67)
  br label %108

108:                                              ; preds = %104
  br label %109

109:                                              ; preds = %108
  store i8 1, ptr %12, align 1, !tbaa !12
  %110 = load i8, ptr %12, align 1, !tbaa !12, !range !14, !noundef !15
  %111 = trunc i8 %110 to i1
  %112 = zext i1 %111 to i8
  store i8 %112, ptr %12, align 1, !tbaa !12
  br label %113

113:                                              ; preds = %109
  br label %114

114:                                              ; preds = %113
  br label %115

115:                                              ; preds = %114
  store ptr null, ptr %11, align 8, !tbaa !21
  br label %122

116:                                              ; No predecessors!
  br label %117

117:                                              ; preds = %116
  br label %118

118:                                              ; preds = %117
  br label %119

119:                                              ; preds = %118
  br label %120

120:                                              ; preds = %119, %98
  %121 = load ptr, ptr %5, align 8, !tbaa !21
  store ptr %121, ptr %11, align 8, !tbaa !21
  br label %122

122:                                              ; preds = %120, %115, %93, %71, %49
  %123 = load ptr, ptr %11, align 8, !tbaa !21
  %124 = icmp eq ptr null, %123
  br i1 %124, label %125, label %155

125:                                              ; preds = %122
  %126 = load i8, ptr %10, align 1, !tbaa !12, !range !14, !noundef !15
  %127 = trunc i8 %126 to i1
  br i1 %127, label %128, label %154

128:                                              ; preds = %125
  %129 = getelementptr inbounds nuw %struct.H5G_loc_t, ptr %8, i32 0, i32 0
  %130 = load ptr, ptr %129, align 8, !tbaa !65
  %131 = getelementptr inbounds nuw %struct.H5O_loc_t, ptr %130, i32 0, i32 1
  %132 = load i64, ptr %131, align 8, !tbaa !55
  %133 = icmp ne i64 %132, -1
  br i1 %133, label %134, label %154

134:                                              ; preds = %128
  %135 = call i32 @H5G_loc_free(ptr noundef %8)
  %136 = icmp slt i32 %135, 0
  br i1 %136, label %137, label %153

137:                                              ; preds = %134
  br label %138

138:                                              ; preds = %137
  br label %139

139:                                              ; preds = %138
  br label %140

140:                                              ; preds = %139
  %141 = load i64, ptr @H5E_DATATYPE_g, align 8, !tbaa !3
  %142 = load i64, ptr @H5E_CANTRELEASE_g, align 8, !tbaa !3
  %143 = call i32 (ptr, ptr, i32, i64, i64, ptr, ...) @H5E_printf_stack(ptr noundef @.str, ptr noundef @__func__.H5T__open_name, i32 noundef 1005, i64 noundef %141, i64 noundef %142, ptr noundef @.str.68)
  br label %144

144:                                              ; preds = %140
  br label %145

145:                                              ; preds = %144
  store i8 1, ptr %12, align 1, !tbaa !12
  %146 = load i8, ptr %12, align 1, !tbaa !12, !range !14, !noundef !15
  %147 = trunc i8 %146 to i1
  %148 = zext i1 %147 to i8
  store i8 %148, ptr %12, align 1, !tbaa !12
  br label %149

149:                                              ; preds = %145
  br label %150

150:                                              ; preds = %149
  store ptr null, ptr %11, align 8, !tbaa !21
  br label %151

151:                                              ; preds = %150
  br label %152

152:                                              ; preds = %151
  br label %153

153:                                              ; preds = %152, %134
  br label %154

154:                                              ; preds = %153, %128, %125
  br label %155

155:                                              ; preds = %154, %122
  br label %156

156:                                              ; preds = %155, %19
  %157 = load ptr, ptr %11, align 8, !tbaa !21
  call void @llvm.lifetime.end.p0(i64 1, ptr %12) #7
  call void @llvm.lifetime.end.p0(i64 8, ptr %11) #7
  call void @llvm.lifetime.end.p0(i64 1, ptr %10) #7
  call void @llvm.lifetime.end.p0(i64 4, ptr %9) #7
  call void @llvm.lifetime.end.p0(i64 16, ptr %8) #7
  call void @llvm.lifetime.end.p0(i64 24, ptr %7) #7
  call void @llvm.lifetime.end.p0(i64 24, ptr %6) #7
  call void @llvm.lifetime.end.p0(i64 8, ptr %5) #7
  ret ptr %157
}