; Function Attrs: nounwind uwtable
define ptr @H5T__open_name(ptr noundef %0, ptr noundef %1) local_unnamed_addr #0 {
  %3 = alloca %struct.H5G_name_t, align 8
  %4 = alloca %struct.H5O_loc_t, align 8
  %5 = alloca %struct.H5G_loc_t, align 8
  %6 = alloca i32, align 4
  call void @llvm.lifetime.start.p0(i64 24, ptr nonnull %3) #9
  call void @llvm.lifetime.start.p0(i64 24, ptr nonnull %4) #9
  call void @llvm.lifetime.start.p0(i64 16, ptr nonnull %5) #9
  call void @llvm.lifetime.start.p0(i64 4, ptr nonnull %6) #9
  %7 = load i8, ptr @H5T_init_g, align 1, !tbaa !3, !range !7, !noundef !8
  %8 = trunc nuw i8 %7 to i1
  %9 = load i8, ptr @H5_libterm_g, align 1, !range !7
  %10 = trunc nuw i8 %9 to i1
  %11 = xor i1 %10, true
  %12 = select i1 %8, i1 true, i1 %11
  br i1 %12, label %13, label %.thread, !prof !9

13:                                               ; preds = %2
  store ptr %4, ptr %5, align 8, !tbaa !55
  %14 = getelementptr inbounds nuw i8, ptr %5, i64 8
  store ptr %3, ptr %14, align 8, !tbaa !59
  %15 = call i32 @H5G_loc_reset(ptr noundef nonnull %5) #9
  %16 = call i32 @H5G_loc_find(ptr noundef %0, ptr noundef %1, ptr noundef nonnull %5) #9
  %17 = icmp sgt i32 %16, -1
  br i1 %17, label %22, label %18

18:                                               ; preds = %13
  %19 = load i64, ptr @H5E_DATATYPE_g, align 8, !tbaa !11
  %20 = load i64, ptr @H5E_NOTFOUND_g, align 8, !tbaa !11
  %21 = call i32 (ptr, ptr, i32, i64, i64, ptr, ...) @H5E_printf_stack(ptr noundef nonnull @.str, ptr noundef nonnull @__func__.H5T__open_name, i32 noundef 985, i64 noundef %19, i64 noundef %20, ptr noundef nonnull @.str.64) #9
  br label %.thread

22:                                               ; preds = %13
  %23 = call i32 @H5O_obj_type(ptr noundef nonnull %4, ptr noundef nonnull %6) #9
  %24 = icmp slt i32 %23, 0
  br i1 %24, label %25, label %29

25:                                               ; preds = %22
  %26 = load i64, ptr @H5E_DATATYPE_g, align 8, !tbaa !11
  %27 = load i64, ptr @H5E_CANTGET_g, align 8, !tbaa !11
  %28 = call i32 (ptr, ptr, i32, i64, i64, ptr, ...) @H5E_printf_stack(ptr noundef nonnull @.str, ptr noundef nonnull @__func__.H5T__open_name, i32 noundef 990, i64 noundef %26, i64 noundef %27, ptr noundef nonnull @.str.65) #9
  br label %42

29:                                               ; preds = %22
  %30 = load i32, ptr %6, align 4, !tbaa !60
  %.not = icmp eq i32 %30, 2
  br i1 %.not, label %35, label %31

31:                                               ; preds = %29
  %32 = load i64, ptr @H5E_DATATYPE_g, align 8, !tbaa !11
  %33 = load i64, ptr @H5E_BADTYPE_g, align 8, !tbaa !11
  %34 = call i32 (ptr, ptr, i32, i64, i64, ptr, ...) @H5E_printf_stack(ptr noundef nonnull @.str, ptr noundef nonnull @__func__.H5T__open_name, i32 noundef 992, i64 noundef %32, i64 noundef %33, ptr noundef nonnull @.str.66) #9
  br label %42

35:                                               ; preds = %29
  %36 = call ptr @H5T_open(ptr noundef nonnull %5)
  %37 = icmp eq ptr %36, null
  br i1 %37, label %38, label %.thread

38:                                               ; preds = %35
  %39 = load i64, ptr @H5E_DATATYPE_g, align 8, !tbaa !11
  %40 = load i64, ptr @H5E_CANTOPENOBJ_g, align 8, !tbaa !11
  %41 = call i32 (ptr, ptr, i32, i64, i64, ptr, ...) @H5E_printf_stack(ptr noundef nonnull @.str, ptr noundef nonnull @__func__.H5T__open_name, i32 noundef 996, i64 noundef %39, i64 noundef %40, ptr noundef nonnull @.str.67) #9
  br label %42

42:                                               ; preds = %25, %31, %38
  %43 = load ptr, ptr %5, align 8, !tbaa !55
  %44 = getelementptr inbounds nuw i8, ptr %43, i64 8
  %45 = load i64, ptr %44, align 8, !tbaa !50
  %.not12 = icmp eq i64 %45, -1
  br i1 %.not12, label %.thread, label %46

46:                                               ; preds = %42
  %47 = call i32 @H5G_loc_free(ptr noundef nonnull %5) #9
  %48 = icmp slt i32 %47, 0
  br i1 %48, label %49, label %.thread

49:                                               ; preds = %46
  %50 = load i64, ptr @H5E_DATATYPE_g, align 8, !tbaa !11
  %51 = load i64, ptr @H5E_CANTRELEASE_g, align 8, !tbaa !11
  %52 = call i32 (ptr, ptr, i32, i64, i64, ptr, ...) @H5E_printf_stack(ptr noundef nonnull @.str, ptr noundef nonnull @__func__.H5T__open_name, i32 noundef 1005, i64 noundef %50, i64 noundef %51, ptr noundef nonnull @.str.68) #9
  br label %.thread

.thread:                                          ; preds = %18, %35, %46, %49, %42, %2
  %.0 = phi ptr [ null, %49 ], [ null, %46 ], [ null, %42 ], [ null, %2 ], [ %36, %35 ], [ null, %18 ]
  call void @llvm.lifetime.end.p0(i64 4, ptr nonnull %6) #9
  call void @llvm.lifetime.end.p0(i64 16, ptr nonnull %5) #9
  call void @llvm.lifetime.end.p0(i64 24, ptr nonnull %4) #9
  call void @llvm.lifetime.end.p0(i64 24, ptr nonnull %3) #9
  ret ptr %.0
}